target datalayout = "e-m:e-p270:32:32-p271:32:32-p272:64:64-i64:64-i128:128-f80:128-n8:16:32:64-S128"
target triple = "x86_64-unknown-linux-gnu"

%"class.QuantLib::BlackCalculator" = type { ptr, double, double, double, double, double, double, double, double, double, double, double, double, double, double, double, double, double, double }

; Function Attrs: mustprogress nounwind uwtable
define noundef double @_ZNK8QuantLib15BlackCalculator5valueEv(ptr noundef nonnull align 8 dereferenceable(152) %this) #6 align 2 {
entry:
  %this.addr = alloca ptr, align 8
  %result = alloca double, align 8
  store ptr %this, ptr %this.addr, align 8, !tbaa !3
  %this1 = load ptr, ptr %this.addr, align 8
  call void @llvm.lifetime.start.p0(i64 8, ptr %result) #19
  %discount_ = getelementptr inbounds nuw %"class.QuantLib::BlackCalculator", ptr %this1, i32 0, i32 4
  %0 = load double, ptr %discount_, align 8, !tbaa !15
  %forward_ = getelementptr inbounds nuw %"class.QuantLib::BlackCalculator", ptr %this1, i32 0, i32 2
  %1 = load double, ptr %forward_, align 8, !tbaa !13
  %alpha_ = getelementptr inbounds nuw %"class.QuantLib::BlackCalculator", ptr %this1, i32 0, i32 8
  %2 = load double, ptr %alpha_, align 8, !tbaa !36
  %x_ = getelementptr inbounds nuw %"class.QuantLib::BlackCalculator", ptr %this1, i32 0, i32 16
  %3 = load double, ptr %x_, align 8, !tbaa !33
  %beta_ = getelementptr inbounds nuw %"class.QuantLib::BlackCalculator", ptr %this1, i32 0, i32 9
  %4 = load double, ptr %beta_, align 8, !tbaa !38
  %mul2 = fmul double %3, %4
  %5 = call double @llvm.fmuladd.f64(double %1, double %2, double %mul2)
  %mul = fmul double %0, %5
  store double %mul, ptr %result, align 8, !tbaa !9
  %6 = load double, ptr %result, align 8, !tbaa !9
  call void @llvm.lifetime.end.p0(i64 8, ptr %result) #19
  ret double %6
}