; Function Attrs: mustprogress nofree norecurse nosync nounwind willreturn memory(argmem: read) uwtable
define noundef double @_ZNK8QuantLib15BlackCalculator5valueEv(ptr nocapture noundef nonnull readonly align 8 dereferenceable(152) %this) local_unnamed_addr #17 align 2 {
entry:
  %discount_ = getelementptr inbounds nuw i8, ptr %this, i64 32
  %0 = load double, ptr %discount_, align 8, !tbaa !31
  %forward_ = getelementptr inbounds nuw i8, ptr %this, i64 16
  %1 = load double, ptr %forward_, align 8, !tbaa !29
  %alpha_ = getelementptr inbounds nuw i8, ptr %this, i64 64
  %2 = load double, ptr %alpha_, align 8, !tbaa !55
  %x_ = getelementptr inbounds nuw i8, ptr %this, i64 128
  %3 = load double, ptr %x_, align 8, !tbaa !51
  %beta_ = getelementptr inbounds nuw i8, ptr %this, i64 72
  %4 = load double, ptr %beta_, align 8, !tbaa !57
  %mul2 = fmul double %3, %4
  %5 = tail call double @llvm.fmuladd.f64(double %1, double %2, double %mul2)
  %mul = fmul double %0, %5
  ret double %mul
}